; ModuleID = 'source-C-CXX/54/1418.cpp'
source_filename = "source-C-CXX/54/1418.cpp"
target datalayout = "e-m:e-p270:32:32-p271:32:32-p272:64:64-i64:64-f80:128-n8:16:32:64-S128"
target triple = "x86_64-pc-linux-gnu"

%"class.std::ios_base::Init" = type { i8 }
%"class.std::basic_istream" = type { i32 (...)**, i64, %"class.std::basic_ios" }
%"class.std::basic_ios" = type { %"class.std::ios_base", %"class.std::basic_ostream"*, i8, i8, %"class.std::basic_streambuf"*, %"class.std::ctype"*, %"class.std::num_put"*, %"class.std::num_get"* }
%"class.std::ios_base" = type { i32 (...)**, i64, i64, i32, i32, i32, %"struct.std::ios_base::_Callback_list"*, %"struct.std::ios_base::_Words", [8 x %"struct.std::ios_base::_Words"], i32, %"struct.std::ios_base::_Words"*, %"class.std::locale" }
%"struct.std::ios_base::_Callback_list" = type { %"struct.std::ios_base::_Callback_list"*, void (i32, %"class.std::ios_base"*, i32)*, i32, i32 }
%"struct.std::ios_base::_Words" = type { i8*, i64 }
%"class.std::locale" = type { %"class.std::locale::_Impl"* }
%"class.std::locale::_Impl" = type { i32, %"class.std::locale::facet"**, i64, %"class.std::locale::facet"**, i8** }
%"class.std::locale::facet" = type <{ i32 (...)**, i32, [4 x i8] }>
%"class.std::basic_ostream" = type { i32 (...)**, %"class.std::basic_ios" }
%"class.std::basic_streambuf" = type { i32 (...)**, i8*, i8*, i8*, i8*, i8*, i8*, %"class.std::locale" }
%"class.std::ctype" = type <{ %"class.std::locale::facet.base", [4 x i8], %struct.__locale_struct*, i8, [7 x i8], i32*, i32*, i16*, i8, [256 x i8], [256 x i8], i8, [6 x i8] }>
%"class.std::locale::facet.base" = type <{ i32 (...)**, i32 }>
%struct.__locale_struct = type { [13 x %struct.__locale_data*], i16*, i32*, i32*, [13 x i8*] }
%struct.__locale_data = type opaque
%"class.std::num_put" = type { %"class.std::locale::facet.base", [4 x i8] }
%"class.std::num_get" = type { %"class.std::locale::facet.base", [4 x i8] }

@_ZStL8__ioinit = internal global %"class.std::ios_base::Init" zeroinitializer, align 1
@__dso_handle = external hidden global i8
@_ZSt3cin = external global %"class.std::basic_istream", align 8
@_ZSt4cout = external global %"class.std::basic_ostream", align 8
@llvm.global_ctors = appending global [1 x { i32, void ()*, i8* }] [{ i32, void ()*, i8* } { i32 65535, void ()* @_GLOBAL__sub_I_1418.cpp, i8* null }]

declare void @_ZNSt8ios_base4InitC1Ev(%"class.std::ios_base::Init"* nonnull align 1 dereferenceable(1)) unnamed_addr #0

; Function Attrs: nounwind
declare void @_ZNSt8ios_base4InitD1Ev(%"class.std::ios_base::Init"* nonnull align 1 dereferenceable(1)) unnamed_addr #1

; Function Attrs: nofree nounwind
declare i32 @__cxa_atexit(void (i8*)*, i8*, i8*) local_unnamed_addr #2

; Function Attrs: mustprogress norecurse sspstrong uwtable
define dso_local i32 @main() local_unnamed_addr #3 {
  %1 = alloca i8, align 1
  %2 = alloca [200 x i8], align 16
  %3 = alloca i32, align 4
  %4 = alloca i32, align 4
  %5 = alloca [200 x i32], align 16
  %6 = getelementptr inbounds [200 x i8], [200 x i8]* %2, i64 0, i64 0
  call void @llvm.lifetime.start.p0i8(i64 200, i8* nonnull %6) #7
  %7 = bitcast i32* %3 to i8*
  call void @llvm.lifetime.start.p0i8(i64 4, i8* nonnull %7) #7
  %8 = bitcast i32* %4 to i8*
  call void @llvm.lifetime.start.p0i8(i64 4, i8* nonnull %8) #7
  %9 = bitcast [200 x i32]* %5 to i8*
  call void @llvm.lifetime.start.p0i8(i64 800, i8* nonnull %9) #7
  %10 = call nonnull align 8 dereferenceable(16) %"class.std::basic_istream"* @_ZNSirsERi(%"class.std::basic_istream"* nonnull align 8 dereferenceable(16) @_ZSt3cin, i32* nonnull align 4 dereferenceable(4) %3)
  call void @_ZSt17__istream_extractRSiPcl(%"class.std::basic_istream"* nonnull align 8 dereferenceable(16) @_ZSt3cin, i8* nonnull %6, i64 200)
  %11 = call nonnull align 8 dereferenceable(16) %"class.std::basic_istream"* @_ZNSirsERi(%"class.std::basic_istream"* nonnull align 8 dereferenceable(16) @_ZSt3cin, i32* nonnull align 4 dereferenceable(4) %4)
  %12 = call i64 @strlen(i8* noundef nonnull %6) #8
  %13 = trunc i64 %12 to i32
  %14 = load i32, i32* %3, align 4
  %15 = sext i32 %14 to i64
  %16 = icmp sgt i32 %13, 0
  br i1 %16, label %17, label %98

17:                                               ; preds = %0
  %18 = and i64 %12, 4294967295
  br label %19

19:                                               ; preds = %17, %45
  %20 = phi i64 [ 0, %17 ], [ %50, %45 ]
  %21 = phi i64 [ 0, %17 ], [ %49, %45 ]
  %22 = getelementptr inbounds [200 x i8], [200 x i8]* %2, i64 0, i64 %20
  %23 = load i8, i8* %22, align 1, !tbaa !5
  %24 = sext i8 %23 to i32
  %25 = add i8 %23, -48
  %26 = icmp ult i8 %25, 10
  br i1 %26, label %27, label %30

27:                                               ; preds = %19
  %28 = add nsw i32 %24, -48
  %29 = getelementptr inbounds [200 x i32], [200 x i32]* %5, i64 0, i64 %20
  store i32 %28, i32* %29, align 4, !tbaa !8
  br label %45

30:                                               ; preds = %19
  %31 = add i8 %23, -97
  %32 = icmp ult i8 %31, 26
  br i1 %32, label %33, label %36

33:                                               ; preds = %30
  %34 = add nsw i32 %24, -87
  %35 = getelementptr inbounds [200 x i32], [200 x i32]* %5, i64 0, i64 %20
  store i32 %34, i32* %35, align 4, !tbaa !8
  br label %45

36:                                               ; preds = %30
  %37 = add i8 %23, -65
  %38 = icmp ult i8 %37, 26
  br i1 %38, label %42, label %39

39:                                               ; preds = %36
  %40 = getelementptr inbounds [200 x i32], [200 x i32]* %5, i64 0, i64 %20
  %41 = load i32, i32* %40, align 4, !tbaa !8
  br label %45

42:                                               ; preds = %36
  %43 = add nsw i32 %24, -55
  %44 = getelementptr inbounds [200 x i32], [200 x i32]* %5, i64 0, i64 %20
  store i32 %43, i32* %44, align 4, !tbaa !8
  br label %45

45:                                               ; preds = %39, %33, %42, %27
  %46 = phi i32 [ %41, %39 ], [ %34, %33 ], [ %43, %42 ], [ %28, %27 ]
  %47 = mul nsw i64 %21, %15
  %48 = sext i32 %46 to i64
  %49 = add nsw i64 %47, %48
  %50 = add nuw nsw i64 %20, 1
  %51 = icmp eq i64 %50, %18
  br i1 %51, label %52, label %19, !llvm.loop !10

52:                                               ; preds = %45
  %53 = icmp eq i64 %49, 0
  br i1 %53, label %98, label %54

54:                                               ; preds = %52
  %55 = load i32, i32* %4, align 4, !tbaa !8
  %56 = sext i32 %55 to i64
  %57 = icmp slt i64 %49, %56
  br i1 %57, label %69, label %58

58:                                               ; preds = %54, %58
  %59 = phi i64 [ %65, %58 ], [ 0, %54 ]
  %60 = phi i64 [ %64, %58 ], [ %49, %54 ]
  %61 = srem i64 %60, %56
  %62 = trunc i64 %61 to i32
  %63 = getelementptr inbounds [200 x i32], [200 x i32]* %5, i64 0, i64 %59
  store i32 %62, i32* %63, align 4, !tbaa !8
  %64 = sdiv i64 %60, %56
  %65 = add nuw i64 %59, 1
  %66 = icmp slt i64 %64, %56
  br i1 %66, label %67, label %58, !llvm.loop !12

67:                                               ; preds = %58
  %68 = trunc i64 %65 to i32
  br label %69

69:                                               ; preds = %67, %54
  %70 = phi i64 [ %49, %54 ], [ %64, %67 ]
  %71 = phi i32 [ 0, %54 ], [ %68, %67 ]
  %72 = icmp sgt i64 %70, 0
  br i1 %72, label %73, label %77

73:                                               ; preds = %69
  %74 = trunc i64 %70 to i32
  %75 = zext i32 %71 to i64
  %76 = getelementptr inbounds [200 x i32], [200 x i32]* %5, i64 0, i64 %75
  store i32 %74, i32* %76, align 4, !tbaa !8
  br label %79

77:                                               ; preds = %69
  %78 = add nsw i32 %71, -1
  br label %79

79:                                               ; preds = %77, %73
  %80 = phi i32 [ %71, %73 ], [ %78, %77 ]
  %81 = icmp sgt i32 %80, -1
  br i1 %81, label %82, label %100

82:                                               ; preds = %79
  %83 = zext i32 %80 to i64
  br label %84

84:                                               ; preds = %82, %95
  %85 = phi i64 [ %83, %82 ], [ %97, %95 ]
  %86 = getelementptr inbounds [200 x i32], [200 x i32]* %5, i64 0, i64 %85
  %87 = load i32, i32* %86, align 4, !tbaa !8
  %88 = icmp ult i32 %87, 10
  br i1 %88, label %89, label %91

89:                                               ; preds = %84
  %90 = call nonnull align 8 dereferenceable(8) %"class.std::basic_ostream"* @_ZNSolsEi(%"class.std::basic_ostream"* nonnull align 8 dereferenceable(8) @_ZSt4cout, i32 %87)
  br label %95

91:                                               ; preds = %84
  %92 = trunc i32 %87 to i8
  %93 = add i8 %92, 55
  call void @llvm.lifetime.start.p0i8(i64 1, i8* nonnull %1)
  store i8 %93, i8* %1, align 1, !tbaa !5
  %94 = call nonnull align 8 dereferenceable(8) %"class.std::basic_ostream"* @_ZSt16__ostream_insertIcSt11char_traitsIcEERSt13basic_ostreamIT_T0_ES6_PKS3_l(%"class.std::basic_ostream"* nonnull align 8 dereferenceable(8) @_ZSt4cout, i8* nonnull %1, i64 1)
  call void @llvm.lifetime.end.p0i8(i64 1, i8* nonnull %1)
  br label %95

95:                                               ; preds = %89, %91
  %96 = icmp sgt i64 %85, 0
  %97 = add nsw i64 %85, -1
  br i1 %96, label %84, label %100, !llvm.loop !13

98:                                               ; preds = %0, %52
  %99 = call nonnull align 8 dereferenceable(8) %"class.std::basic_ostream"* @_ZNSolsEi(%"class.std::basic_ostream"* nonnull align 8 dereferenceable(8) @_ZSt4cout, i32 0)
  br label %100

100:                                              ; preds = %95, %79, %98
  call void @llvm.lifetime.end.p0i8(i64 800, i8* nonnull %9) #7
  call void @llvm.lifetime.end.p0i8(i64 4, i8* nonnull %8) #7
  call void @llvm.lifetime.end.p0i8(i64 4, i8* nonnull %7) #7
  call void @llvm.lifetime.end.p0i8(i64 200, i8* nonnull %6) #7
  ret i32 0
}

; Function Attrs: argmemonly mustprogress nofree nosync nounwind willreturn
declare void @llvm.lifetime.start.p0i8(i64 immarg, i8* nocapture) #4

declare nonnull align 8 dereferenceable(16) %"class.std::basic_istream"* @_ZNSirsERi(%"class.std::basic_istream"* nonnull align 8 dereferenceable(16), i32* nonnull align 4 dereferenceable(4)) local_unnamed_addr #0

; Function Attrs: argmemonly mustprogress nofree nounwind readonly willreturn
declare i64 @strlen(i8* nocapture) local_unnamed_addr #5

declare nonnull align 8 dereferenceable(8) %"class.std::basic_ostream"* @_ZNSolsEi(%"class.std::basic_ostream"* nonnull align 8 dereferenceable(8), i32) local_unnamed_addr #0

; Function Attrs: argmemonly mustprogress nofree nosync nounwind willreturn
declare void @llvm.lifetime.end.p0i8(i64 immarg, i8* nocapture) #4

declare void @_ZSt17__istream_extractRSiPcl(%"class.std::basic_istream"* nonnull align 8 dereferenceable(16), i8*, i64) local_unnamed_addr #0

declare nonnull align 8 dereferenceable(8) %"class.std::basic_ostream"* @_ZSt16__ostream_insertIcSt11char_traitsIcEERSt13basic_ostreamIT_T0_ES6_PKS3_l(%"class.std::basic_ostream"* nonnull align 8 dereferenceable(8), i8*, i64) local_unnamed_addr #0

; Function Attrs: sspstrong uwtable
define internal void @_GLOBAL__sub_I_1418.cpp() #6 section ".text.startup" {
  tail call void @_ZNSt8ios_base4InitC1Ev(%"class.std::ios_base::Init"* nonnull align 1 dereferenceable(1) @_ZStL8__ioinit)
  %1 = tail call i32 @__cxa_atexit(void (i8*)* bitcast (void (%"class.std::ios_base::Init"*)* @_ZNSt8ios_base4InitD1Ev to void (i8*)*), i8* getelementptr inbounds (%"class.std::ios_base::Init", %"class.std::ios_base::Init"* @_ZStL8__ioinit, i64 0, i32 0), i8* nonnull @__dso_handle) #7
  ret void
}


!llvm.module.flags = !{!0, !1, !2, !3}
!llvm.ident = !{!4}

!0 = !{i32 1, !"wchar_size", i32 4}
!1 = !{i32 7, !"PIC Level", i32 2}
!2 = !{i32 7, !"PIE Level", i32 2}
!3 = !{i32 7, !"uwtable", i32 1}
!4 = !{!"clang version 13.0.0"}
!5 = !{!6, !6, i64 0}
!6 = !{!"omnipotent char", !7, i64 0}
!7 = !{!"Simple C++ TBAA"}
!8 = !{!9, !9, i64 0}
!9 = !{!"int", !6, i64 0}
!10 = distinct !{!10, !11}
!11 = !{!"llvm.loop.mustprogress"}
!12 = distinct !{!12, !11}
!13 = distinct !{!13, !11}
